target datalayout = "e-m:e-p270:32:32-p271:32:32-p272:64:64-i64:64-i128:128-f80:128-n8:16:32:64-S128"
target triple = "x86_64-pc-linux-gnu"

%struct.AVCodecContext = type { ptr, i32, i32, ptr, i32, i32, ptr, ptr, ptr, i64, i32, i32, ptr, i32, %struct.AVRational, %struct.AVRational, %struct.AVRational, i32, i32, i32, i32, i32, %struct.AVRational, i32, i32, i32, i32, i32, i32, i32, i32, i32, i32, i32, ptr, ptr, i32, float, float, float, float, float, float, float, float, float, i32, i32, i32, i32, i32, i32, i32, i32, i32, i32, i32, i32, ptr, ptr, ptr, i32, i32, i32, i32, i32, i32, i32, i32, i32, i32, %struct.AVChannelLayout, i32, i32, i32, i32, i32, i32, i32, i32, ptr, i32, i32, i32, float, float, i32, i32, i32, i32, i32, ptr, i64, i64, float, float, i32, i32, ptr, ptr, i32, i32, i32, i32, i32, ptr, ptr, ptr, ptr, i32, i32, [8 x i64], i32, i32, i32, i32, i32, i32, i32, ptr, ptr, i32, i32, i32, i32, i32, i32, i32, i32, i32, i32, ptr, ptr, i32, i32, ptr, ptr, ptr, ptr, i32, i32, i64, i32, i32, i64, ptr, i64, ptr, i32, ptr, i32 }
%struct.AVRational = type { i32, i32 }
%struct.AVChannelLayout = type { i32, i32, %union.anon.0, ptr }
%union.anon.0 = type { i64 }
%struct.TM2Context = type { ptr, ptr, %struct.GetBitContext, i32, %struct.BswapDSPContext, ptr, i32, [7 x ptr], [7 x i32], [7 x i32], [7 x [64 x i32]], [4 x i32], [4 x i32], ptr, ptr, ptr, ptr, ptr, ptr, ptr, ptr, ptr, ptr, i32, i32, i32 }
%struct.GetBitContext = type { ptr, ptr, i32, i32, i32 }
%struct.BswapDSPContext = type { ptr, ptr }

; Function Attrs: cold nounwind optsize uwtable
define internal i32 @decode_end(ptr noundef %0) #0 {
  %2 = alloca ptr, align 8
  %3 = alloca ptr, align 8
  %4 = alloca i32, align 4
  store ptr %0, ptr %2, align 8, !tbaa !4
  call void @llvm.lifetime.start.p0(i64 8, ptr %3) #10
  %5 = load ptr, ptr %2, align 8, !tbaa !4
  %6 = getelementptr inbounds nuw %struct.AVCodecContext, ptr %5, i32 0, i32 6
  %7 = load ptr, ptr %6, align 8, !tbaa !9
  store ptr %7, ptr %3, align 8, !tbaa !29
  call void @llvm.lifetime.start.p0(i64 4, ptr %4) #10
  %8 = load ptr, ptr %3, align 8, !tbaa !29
  %9 = getelementptr inbounds nuw %struct.TM2Context, ptr %8, i32 0, i32 13
  call void @av_freep(ptr noundef %9)
  store i32 0, ptr %4, align 4, !tbaa !32
  br label %10

10:                                               ; preds = %19, %1
  %11 = load i32, ptr %4, align 4, !tbaa !32
  %12 = icmp slt i32 %11, 7
  br i1 %12, label %13, label %22

13:                                               ; preds = %10
  %14 = load ptr, ptr %3, align 8, !tbaa !29
  %15 = getelementptr inbounds nuw %struct.TM2Context, ptr %14, i32 0, i32 7
  %16 = load i32, ptr %4, align 4, !tbaa !32
  %17 = sext i32 %16 to i64
  %18 = getelementptr inbounds [7 x ptr], ptr %15, i64 0, i64 %17
  call void @av_freep(ptr noundef %18)
  br label %19

19:                                               ; preds = %13
  %20 = load i32, ptr %4, align 4, !tbaa !32
  %21 = add nsw i32 %20, 1
  store i32 %21, ptr %4, align 4, !tbaa !32
  br label %10, !llvm.loop !73

22:                                               ; preds = %10
  %23 = load ptr, ptr %3, align 8, !tbaa !29
  %24 = getelementptr inbounds nuw %struct.TM2Context, ptr %23, i32 0, i32 15
  call void @av_freep(ptr noundef %24)
  %25 = load ptr, ptr %3, align 8, !tbaa !29
  %26 = getelementptr inbounds nuw %struct.TM2Context, ptr %25, i32 0, i32 16
  call void @av_freep(ptr noundef %26)
  %27 = load ptr, ptr %3, align 8, !tbaa !29
  %28 = getelementptr inbounds nuw %struct.TM2Context, ptr %27, i32 0, i32 5
  call void @av_freep(ptr noundef %28)
  %29 = load ptr, ptr %3, align 8, !tbaa !29
  %30 = getelementptr inbounds nuw %struct.TM2Context, ptr %29, i32 0, i32 6
  store i32 0, ptr %30, align 8, !tbaa !74
  %31 = load ptr, ptr %3, align 8, !tbaa !29
  %32 = getelementptr inbounds nuw %struct.TM2Context, ptr %31, i32 0, i32 1
  call void @av_frame_free(ptr noundef %32)
  call void @llvm.lifetime.end.p0(i64 4, ptr %4) #10
  call void @llvm.lifetime.end.p0(i64 8, ptr %3) #10
  ret i32 0
}