; Function Attrs: cold nounwind optsize uwtable
define internal noundef i32 @decode_end(ptr noundef readonly captures(none) %0) #0 {
  %2 = getelementptr inbounds nuw i8, ptr %0, i64 32
  %3 = load ptr, ptr %2, align 8, !tbaa !4
  %4 = getelementptr inbounds nuw i8, ptr %3, i64 2024
  tail call void @av_freep(ptr noundef nonnull %4) #8
  %5 = getelementptr inbounds nuw i8, ptr %3, i64 88
  br label %6

6:                                                ; preds = %1, %6
  %indvars.iv = phi i64 [ 0, %1 ], [ %indvars.iv.next, %6 ]
  %7 = getelementptr inbounds nuw [7 x ptr], ptr %5, i64 0, i64 %indvars.iv
  tail call void @av_freep(ptr noundef nonnull %7) #8
  %indvars.iv.next = add nuw nsw i64 %indvars.iv, 1
  %exitcond.not = icmp eq i64 %indvars.iv.next, 7
  br i1 %exitcond.not, label %8, label %6, !llvm.loop !112

8:                                                ; preds = %6
  %9 = getelementptr inbounds nuw i8, ptr %3, i64 2040
  tail call void @av_freep(ptr noundef nonnull %9) #8
  %10 = getelementptr inbounds nuw i8, ptr %3, i64 2048
  tail call void @av_freep(ptr noundef nonnull %10) #8
  %11 = getelementptr inbounds nuw i8, ptr %3, i64 72
  tail call void @av_freep(ptr noundef nonnull %11) #8
  %12 = getelementptr inbounds nuw i8, ptr %3, i64 80
  store i32 0, ptr %12, align 8, !tbaa !113
  %13 = getelementptr inbounds nuw i8, ptr %3, i64 8
  tail call void @av_frame_free(ptr noundef nonnull %13) #8
  ret i32 0
}